target datalayout = "e-m:e-p270:32:32-p271:32:32-p272:64:64-i64:64-i128:128-f80:128-n8:16:32:64-S128"
target triple = "x86_64-pc-linux-gnu"

%"class.std::vector.3" = type { %"struct.std::_Vector_base.4" }
%"struct.std::_Vector_base.4" = type { %"struct.std::_Vector_base<Variable *, std::allocator<Variable *>>::_Vector_impl" }
%"struct.std::_Vector_base<Variable *, std::allocator<Variable *>>::_Vector_impl" = type { %"struct.std::_Vector_base<Variable *, std::allocator<Variable *>>::_Vector_impl_data" }
%"struct.std::_Vector_base<Variable *, std::allocator<Variable *>>::_Vector_impl_data" = type { ptr, ptr, ptr }
%class.Effect = type <{ %"class.std::vector.8", %"class.std::vector.8", %"class.std::vector.8", i8, i8, [6 x i8] }>
%"class.std::vector.8" = type { %"struct.std::_Vector_base.9" }
%"struct.std::_Vector_base.9" = type { %"struct.std::_Vector_base<const Variable *, std::allocator<const Variable *>>::_Vector_impl" }
%"struct.std::_Vector_base<const Variable *, std::allocator<const Variable *>>::_Vector_impl" = type { %"struct.std::_Vector_base<const Variable *, std::allocator<const Variable *>>::_Vector_impl_data" }
%"struct.std::_Vector_base<const Variable *, std::allocator<const Variable *>>::_Vector_impl_data" = type { ptr, ptr, ptr }
%class.Statement = type { ptr, i32, i32, ptr, ptr }
%class.CGContext = type { ptr, i32, i32, i32, %"class.std::vector.31", ptr, ptr, %"class.std::map.36", ptr, ptr, ptr, %class.Effect }
%"class.std::vector.31" = type { %"struct.std::_Vector_base.32" }
%"struct.std::_Vector_base.32" = type { %"struct.std::_Vector_base<const Block *, std::allocator<const Block *>>::_Vector_impl" }
%"struct.std::_Vector_base<const Block *, std::allocator<const Block *>>::_Vector_impl" = type { %"struct.std::_Vector_base<const Block *, std::allocator<const Block *>>::_Vector_impl_data" }
%"struct.std::_Vector_base<const Block *, std::allocator<const Block *>>::_Vector_impl_data" = type { ptr, ptr, ptr }
%"class.std::map.36" = type { %"class.std::_Rb_tree.37" }
%"class.std::_Rb_tree.37" = type { %"struct.std::_Rb_tree<const Variable *, std::pair<const Variable *const, unsigned int>, std::_Select1st<std::pair<const Variable *const, unsigned int>>, std::less<const Variable *>>::_Rb_tree_impl" }
%"struct.std::_Rb_tree<const Variable *, std::pair<const Variable *const, unsigned int>, std::_Select1st<std::pair<const Variable *const, unsigned int>>, std::less<const Variable *>>::_Rb_tree_impl" = type { %"struct.std::_Rb_tree_key_compare.41", %"struct.std::_Rb_tree_header" }
%"struct.std::_Rb_tree_key_compare.41" = type { %"struct.std::less.42" }
%"struct.std::less.42" = type { i8 }
%"struct.std::_Rb_tree_header" = type { %"struct.std::_Rb_tree_node_base", i64 }
%"struct.std::_Rb_tree_node_base" = type { i32, ptr, ptr, ptr }
%class.Block = type { %class.Statement, %"class.std::vector.18", %"class.std::vector.18", %"class.std::vector.3", %"class.std::map", i8, i8, i8, %"class.std::vector.26", i8, i32 }
%"class.std::vector.18" = type { %"struct.std::_Vector_base.19" }
%"struct.std::_Vector_base.19" = type { %"struct.std::_Vector_base<Statement *, std::allocator<Statement *>>::_Vector_impl" }
%"struct.std::_Vector_base<Statement *, std::allocator<Statement *>>::_Vector_impl" = type { %"struct.std::_Vector_base<Statement *, std::allocator<Statement *>>::_Vector_impl_data" }
%"struct.std::_Vector_base<Statement *, std::allocator<Statement *>>::_Vector_impl_data" = type { ptr, ptr, ptr }
%"class.std::map" = type { %"class.std::_Rb_tree" }
%"class.std::_Rb_tree" = type { %"struct.std::_Rb_tree<std::__cxx11::basic_string<char>, std::pair<const std::__cxx11::basic_string<char>, eSimpleType>, std::_Select1st<std::pair<const std::__cxx11::basic_string<char>, eSimpleType>>, std::less<std::__cxx11::basic_string<char>>>::_Rb_tree_impl" }
%"struct.std::_Rb_tree<std::__cxx11::basic_string<char>, std::pair<const std::__cxx11::basic_string<char>, eSimpleType>, std::_Select1st<std::pair<const std::__cxx11::basic_string<char>, eSimpleType>>, std::less<std::__cxx11::basic_string<char>>>::_Rb_tree_impl" = type { %"struct.std::_Rb_tree_key_compare", %"struct.std::_Rb_tree_header" }
%"struct.std::_Rb_tree_key_compare" = type { %"struct.std::less" }
%"struct.std::less" = type { i8 }
%"class.std::vector.26" = type { %"struct.std::_Vector_base.27" }
%"struct.std::_Vector_base.27" = type { %"struct.std::_Vector_base<const Statement *, std::allocator<const Statement *>>::_Vector_impl" }
%"struct.std::_Vector_base<const Statement *, std::allocator<const Statement *>>::_Vector_impl" = type { %"struct.std::_Vector_base<const Statement *, std::allocator<const Statement *>>::_Vector_impl_data" }
%"struct.std::_Vector_base<const Statement *, std::allocator<const Statement *>>::_Vector_impl_data" = type { ptr, ptr, ptr }
%class.RWDirective = type { ptr, ptr, ptr, ptr }

; Function Attrs: mustprogress nounwind uwtable
define linkonce_odr dso_local noundef i64 @_ZNKSt8_Rb_treeIPK8VariableSt4pairIKS2_jESt10_Select1stIS5_ESt4lessIS2_ESaIS5_EE4sizeEv(ptr noundef nonnull align 8 dereferenceable(48) %0) #5 comdat align 2 {
  %2 = alloca ptr, align 8
  store ptr %0, ptr %2, align 8
  %3 = load ptr, ptr %2, align 8
  %4 = getelementptr inbounds %"class.std::_Rb_tree.37", ptr %3, i32 0, i32 0
  %5 = getelementptr inbounds i8, ptr %4, i64 8
  %6 = getelementptr inbounds %"struct.std::_Rb_tree_header", ptr %5, i32 0, i32 1
  %7 = load i64, ptr %6, align 8
  ret i64 %7
}

; Function Attrs: mustprogress nounwind uwtable
define linkonce_odr dso_local noundef nonnull align 8 dereferenceable(8) ptr @_ZNKSt6vectorIP9StatementSaIS1_EEixEm(ptr noundef nonnull align 8 dereferenceable(24) %0, i64 noundef %1) #5 comdat align 2 {
  %3 = alloca ptr, align 8
  %4 = alloca i64, align 8
  store ptr %0, ptr %3, align 8
  store i64 %1, ptr %4, align 8
  %5 = load ptr, ptr %3, align 8
  %6 = getelementptr inbounds %"struct.std::_Vector_base.19", ptr %5, i32 0, i32 0
  %7 = getelementptr inbounds %"struct.std::_Vector_base<Statement *, std::allocator<Statement *>>::_Vector_impl_data", ptr %6, i32 0, i32 0
  %8 = load ptr, ptr %7, align 8
  %9 = load i64, ptr %4, align 8
  %10 = getelementptr inbounds ptr, ptr %8, i64 %9
  ret ptr %10
}

; Function Attrs: mustprogress nounwind uwtable
define linkonce_odr dso_local noundef i64 @_ZNKSt6vectorIP9StatementSaIS1_EE4sizeEv(ptr noundef nonnull align 8 dereferenceable(24) %0) #5 comdat align 2 {
  %2 = alloca ptr, align 8
  store ptr %0, ptr %2, align 8
  %3 = load ptr, ptr %2, align 8
  %4 = getelementptr inbounds %"struct.std::_Vector_base.19", ptr %3, i32 0, i32 0
  %5 = getelementptr inbounds %"struct.std::_Vector_base<Statement *, std::allocator<Statement *>>::_Vector_impl_data", ptr %4, i32 0, i32 1
  %6 = load ptr, ptr %5, align 8
  %7 = getelementptr inbounds %"struct.std::_Vector_base.19", ptr %3, i32 0, i32 0
  %8 = getelementptr inbounds %"struct.std::_Vector_base<Statement *, std::allocator<Statement *>>::_Vector_impl_data", ptr %7, i32 0, i32 0
  %9 = load ptr, ptr %8, align 8
  %10 = ptrtoint ptr %6 to i64
  %11 = ptrtoint ptr %9 to i64
  %12 = sub i64 %10, %11
  %13 = sdiv exact i64 %12, 8
  ret i64 %13
}

; Function Attrs: mustprogress nounwind uwtable
define linkonce_odr dso_local noundef i64 @_ZNKSt3mapIPK8VariablejSt4lessIS2_ESaISt4pairIKS2_jEEE4sizeEv(ptr noundef nonnull align 8 dereferenceable(48) %0) #5 comdat align 2 {
  %2 = alloca ptr, align 8
  store ptr %0, ptr %2, align 8
  %3 = load ptr, ptr %2, align 8
  %4 = getelementptr inbounds %"class.std::map.36", ptr %3, i32 0, i32 0
  %5 = call noundef i64 @_ZNKSt8_Rb_treeIPK8VariableSt4pairIKS2_jESt10_Select1stIS5_ESt4lessIS2_ESaIS5_EE4sizeEv(ptr noundef nonnull align 8 dereferenceable(48) %4) #3
  ret i64 %5
}

; Function Attrs: mustprogress nounwind uwtable
define linkonce_odr dso_local noundef nonnull align 8 dereferenceable(8) ptr @_ZNSt6vectorIPK8VariableSaIS2_EEixEm(ptr noundef nonnull align 8 dereferenceable(24) %0, i64 noundef %1) #5 comdat align 2 {
  %3 = alloca ptr, align 8
  %4 = alloca i64, align 8
  store ptr %0, ptr %3, align 8
  store i64 %1, ptr %4, align 8
  %5 = load ptr, ptr %3, align 8
  %6 = getelementptr inbounds %"struct.std::_Vector_base.9", ptr %5, i32 0, i32 0
  %7 = getelementptr inbounds %"struct.std::_Vector_base<const Variable *, std::allocator<const Variable *>>::_Vector_impl_data", ptr %6, i32 0, i32 0
  %8 = load ptr, ptr %7, align 8
  %9 = load i64, ptr %4, align 8
  %10 = getelementptr inbounds ptr, ptr %8, i64 %9
  ret ptr %10
}

; Function Attrs: mustprogress nounwind uwtable
define linkonce_odr dso_local noundef i64 @_ZNKSt6vectorIPK8VariableSaIS2_EE4sizeEv(ptr noundef nonnull align 8 dereferenceable(24) %0) #5 comdat align 2 {
  %2 = alloca ptr, align 8
  store ptr %0, ptr %2, align 8
  %3 = load ptr, ptr %2, align 8
  %4 = getelementptr inbounds %"struct.std::_Vector_base.9", ptr %3, i32 0, i32 0
  %5 = getelementptr inbounds %"struct.std::_Vector_base<const Variable *, std::allocator<const Variable *>>::_Vector_impl_data", ptr %4, i32 0, i32 1
  %6 = load ptr, ptr %5, align 8
  %7 = getelementptr inbounds %"struct.std::_Vector_base.9", ptr %3, i32 0, i32 0
  %8 = getelementptr inbounds %"struct.std::_Vector_base<const Variable *, std::allocator<const Variable *>>::_Vector_impl_data", ptr %7, i32 0, i32 0
  %9 = load ptr, ptr %8, align 8
  %10 = ptrtoint ptr %6 to i64
  %11 = ptrtoint ptr %9 to i64
  %12 = sub i64 %10, %11
  %13 = sdiv exact i64 %12, 8
  ret i64 %13
}

; Function Attrs: mustprogress nounwind uwtable
define dso_local noundef ptr @_ZNK5Block12get_last_stmEv(ptr noundef nonnull align 8 dereferenceable(192) %0) #5 align 2 {
  %2 = alloca ptr, align 8
  %3 = alloca ptr, align 8
  %4 = alloca i64, align 8
  store ptr %0, ptr %2, align 8
  %5 = load ptr, ptr %2, align 8
  store ptr null, ptr %3, align 8
  store i64 0, ptr %4, align 8
  br label %6

6:                                                ; preds = %22, %1
  %7 = load i64, ptr %4, align 8
  %8 = getelementptr inbounds %class.Block, ptr %5, i32 0, i32 1
  %9 = call noundef i64 @_ZNKSt6vectorIP9StatementSaIS1_EE4sizeEv(ptr noundef nonnull align 8 dereferenceable(24) %8) #3
  %10 = icmp ult i64 %7, %9
  br i1 %10, label %11, label %25

11:                                               ; preds = %6
  %12 = getelementptr inbounds %class.Block, ptr %5, i32 0, i32 1
  %13 = load i64, ptr %4, align 8
  %14 = call noundef nonnull align 8 dereferenceable(8) ptr @_ZNKSt6vectorIP9StatementSaIS1_EEixEm(ptr noundef nonnull align 8 dereferenceable(24) %12, i64 noundef %13) #3
  %15 = load ptr, ptr %14, align 8
  store ptr %15, ptr %3, align 8
  %16 = load ptr, ptr %3, align 8
  %17 = getelementptr inbounds %class.Statement, ptr %16, i32 0, i32 1
  %18 = load i32, ptr %17, align 8
  %19 = icmp eq i32 %18, 5
  br i1 %19, label %20, label %21

20:                                               ; preds = %11
  br label %25

21:                                               ; preds = %11
  br label %22

22:                                               ; preds = %21
  %23 = load i64, ptr %4, align 8
  %24 = add i64 %23, 1
  store i64 %24, ptr %4, align 8
  br label %6, !llvm.loop !17

25:                                               ; preds = %20, %6
  %26 = load ptr, ptr %3, align 8
  ret ptr %26
}

; Function Attrs: mustprogress uwtable
define dso_local noundef zeroext i1 @_ZN5Block16need_nested_loopERK9CGContext(ptr noundef nonnull align 8 dereferenceable(192) %0, ptr noundef nonnull align 8 dereferenceable(216) %1) #4 align 2 {
  %3 = alloca i1, align 1
  %4 = alloca ptr, align 8
  %5 = alloca ptr, align 8
  %6 = alloca i64, align 8
  %7 = alloca ptr, align 8
  %8 = alloca ptr, align 8
  %9 = alloca i64, align 8
  %10 = alloca i64, align 8
  store ptr %0, ptr %4, align 8
  store ptr %1, ptr %5, align 8
  %11 = load ptr, ptr %4, align 8
  %12 = call noundef ptr @_ZNK5Block12get_last_stmEv(ptr noundef nonnull align 8 dereferenceable(192) %11)
  store ptr %12, ptr %7, align 8
  %13 = getelementptr inbounds %class.Block, ptr %11, i32 0, i32 5
  %14 = load i8, ptr %13, align 8
  %15 = trunc i8 %14 to i1
  br i1 %15, label %16, label %112

16:                                               ; preds = %2
  %17 = load ptr, ptr %7, align 8
  %18 = icmp eq ptr %17, null
  br i1 %18, label %25, label %19

19:                                               ; preds = %16
  %20 = load ptr, ptr %7, align 8
  %21 = load ptr, ptr %20, align 8
  %22 = getelementptr inbounds ptr, ptr %21, i64 7
  %23 = load ptr, ptr %22, align 8
  %24 = call noundef zeroext i1 %23(ptr noundef nonnull align 8 dereferenceable(32) %20)
  br i1 %24, label %112, label %25

25:                                               ; preds = %19, %16
  %26 = load ptr, ptr %5, align 8
  %27 = getelementptr inbounds %class.CGContext, ptr %26, i32 0, i32 6
  %28 = load ptr, ptr %27, align 8
  %29 = icmp ne ptr %28, null
  br i1 %29, label %30, label %112

30:                                               ; preds = %25
  %31 = load ptr, ptr %5, align 8
  %32 = getelementptr inbounds %class.CGContext, ptr %31, i32 0, i32 6
  %33 = load ptr, ptr %32, align 8
  store ptr %33, ptr %8, align 8
  store i64 0, ptr %6, align 8
  br label %34

34:                                               ; preds = %69, %30
  %35 = load i64, ptr %6, align 8
  %36 = load ptr, ptr %8, align 8
  %37 = getelementptr inbounds %class.RWDirective, ptr %36, i32 0, i32 2
  %38 = load ptr, ptr %37, align 8
  %39 = call noundef i64 @_ZNKSt6vectorIPK8VariableSaIS2_EE4sizeEv(ptr noundef nonnull align 8 dereferenceable(24) %38) #3
  %40 = icmp ult i64 %35, %39
  br i1 %40, label %41, label %72

41:                                               ; preds = %34
  %42 = load ptr, ptr %8, align 8
  %43 = getelementptr inbounds %class.RWDirective, ptr %42, i32 0, i32 2
  %44 = load ptr, ptr %43, align 8
  %45 = load i64, ptr %6, align 8
  %46 = call noundef nonnull align 8 dereferenceable(8) ptr @_ZNSt6vectorIPK8VariableSaIS2_EEixEm(ptr noundef nonnull align 8 dereferenceable(24) %44, i64 noundef %45) #3
  %47 = load ptr, ptr %46, align 8
  %48 = load ptr, ptr %47, align 8
  %49 = getelementptr inbounds ptr, ptr %48, i64 5
  %50 = load ptr, ptr %49, align 8
  %51 = call noundef i64 %50(ptr noundef nonnull align 8 dereferenceable(200) %47)
  store i64 %51, ptr %9, align 8
  %52 = load i64, ptr %9, align 8
  %53 = load ptr, ptr %5, align 8
  %54 = getelementptr inbounds %class.CGContext, ptr %53, i32 0, i32 7
  %55 = call noundef i64 @_ZNKSt3mapIPK8VariablejSt4lessIS2_ESaISt4pairIKS2_jEEE4sizeEv(ptr noundef nonnull align 8 dereferenceable(48) %54) #3
  %56 = icmp ugt i64 %52, %55
  br i1 %56, label %57, label %58

57:                                               ; preds = %41
  store i1 true, ptr %3, align 1
  br label %113

58:                                               ; preds = %41
  %59 = load i64, ptr %9, align 8
  %60 = load ptr, ptr %5, align 8
  %61 = getelementptr inbounds %class.CGContext, ptr %60, i32 0, i32 7
  %62 = call noundef i64 @_ZNKSt3mapIPK8VariablejSt4lessIS2_ESaISt4pairIKS2_jEEE4sizeEv(ptr noundef nonnull align 8 dereferenceable(48) %61) #3
  %63 = icmp eq i64 %59, %62
  br i1 %63, label %64, label %67

64:                                               ; preds = %58
  %65 = call noundef zeroext i1 @_Z12rnd_flipcoinjPK6FilterPKNSt7__cxx1112basic_stringIcSt11char_traitsIcESaIcEEE(i32 noundef 10, ptr noundef null, ptr noundef null)
  br i1 %65, label %66, label %67

66:                                               ; preds = %64
  store i1 true, ptr %3, align 1
  br label %113

67:                                               ; preds = %64, %58
  br label %68

68:                                               ; preds = %67
  br label %69

69:                                               ; preds = %68
  %70 = load i64, ptr %6, align 8
  %71 = add i64 %70, 1
  store i64 %71, ptr %6, align 8
  br label %34, !llvm.loop !11

72:                                               ; preds = %34
  store i64 0, ptr %6, align 8
  br label %73

73:                                               ; preds = %108, %72
  %74 = load i64, ptr %6, align 8
  %75 = load ptr, ptr %8, align 8
  %76 = getelementptr inbounds %class.RWDirective, ptr %75, i32 0, i32 3
  %77 = load ptr, ptr %76, align 8
  %78 = call noundef i64 @_ZNKSt6vectorIPK8VariableSaIS2_EE4sizeEv(ptr noundef nonnull align 8 dereferenceable(24) %77) #3
  %79 = icmp ult i64 %74, %78
  br i1 %79, label %80, label %111

80:                                               ; preds = %73
  %81 = load ptr, ptr %8, align 8
  %82 = getelementptr inbounds %class.RWDirective, ptr %81, i32 0, i32 3
  %83 = load ptr, ptr %82, align 8
  %84 = load i64, ptr %6, align 8
  %85 = call noundef nonnull align 8 dereferenceable(8) ptr @_ZNSt6vectorIPK8VariableSaIS2_EEixEm(ptr noundef nonnull align 8 dereferenceable(24) %83, i64 noundef %84) #3
  %86 = load ptr, ptr %85, align 8
  %87 = load ptr, ptr %86, align 8
  %88 = getelementptr inbounds ptr, ptr %87, i64 5
  %89 = load ptr, ptr %88, align 8
  %90 = call noundef i64 %89(ptr noundef nonnull align 8 dereferenceable(200) %86)
  store i64 %90, ptr %10, align 8
  %91 = load i64, ptr %10, align 8
  %92 = load ptr, ptr %5, align 8
  %93 = getelementptr inbounds %class.CGContext, ptr %92, i32 0, i32 7
  %94 = call noundef i64 @_ZNKSt3mapIPK8VariablejSt4lessIS2_ESaISt4pairIKS2_jEEE4sizeEv(ptr noundef nonnull align 8 dereferenceable(48) %93) #3
  %95 = icmp ugt i64 %91, %94
  br i1 %95, label %96, label %97

96:                                               ; preds = %80
  store i1 true, ptr %3, align 1
  br label %113

97:                                               ; preds = %80
  %98 = load i64, ptr %10, align 8
  %99 = load ptr, ptr %5, align 8
  %100 = getelementptr inbounds %class.CGContext, ptr %99, i32 0, i32 7
  %101 = call noundef i64 @_ZNKSt3mapIPK8VariablejSt4lessIS2_ESaISt4pairIKS2_jEEE4sizeEv(ptr noundef nonnull align 8 dereferenceable(48) %100) #3
  %102 = icmp eq i64 %98, %101
  br i1 %102, label %103, label %106

103:                                              ; preds = %97
  %104 = call noundef zeroext i1 @_Z12rnd_flipcoinjPK6FilterPKNSt7__cxx1112basic_stringIcSt11char_traitsIcESaIcEEE(i32 noundef 10, ptr noundef null, ptr noundef null)
  br i1 %104, label %105, label %106

105:                                              ; preds = %103
  store i1 true, ptr %3, align 1
  br label %113

106:                                              ; preds = %103, %97
  br label %107

107:                                              ; preds = %106
  br label %108

108:                                              ; preds = %107
  %109 = load i64, ptr %6, align 8
  %110 = add i64 %109, 1
  store i64 %110, ptr %6, align 8
  br label %73, !llvm.loop !12

111:                                              ; preds = %73
  br label %112

112:                                              ; preds = %111, %25, %19, %2
  store i1 false, ptr %3, align 1
  br label %113

113:                                              ; preds = %112, %105, %96, %66, %57
  %114 = load i1, ptr %3, align 1
  ret i1 %114
}