; Function Attrs: mustprogress uwtable
define dso_local noundef zeroext i1 @_ZN5Block16need_nested_loopERK9CGContext(ptr nocapture noundef nonnull readonly align 8 dereferenceable(192) %0, ptr nocapture noundef nonnull readonly align 8 dereferenceable(216) %1) local_unnamed_addr #3 align 2 {
  %3 = getelementptr inbounds i8, ptr %0, i64 32
  %4 = getelementptr inbounds i8, ptr %0, i64 40
  %5 = load ptr, ptr %4, align 8
  %6 = load ptr, ptr %3, align 8
  %.not.i = icmp eq ptr %5, %6
  br i1 %.not.i, label %_ZNK5Block12get_last_stmEv.exit.thread, label %.lr.ph.preheader.i

.lr.ph.preheader.i:                               ; preds = %2
  %7 = ptrtoint ptr %5 to i64
  %8 = ptrtoint ptr %6 to i64
  %9 = sub i64 %7, %8
  %10 = ashr exact i64 %9, 3
  %umax.i = tail call i64 @llvm.umax.i64(i64 %10, i64 1)
  br label %.lr.ph.i

.lr.ph.i:                                         ; preds = %.lr.ph.i, %.lr.ph.preheader.i
  %.06.i = phi i64 [ 0, %.lr.ph.preheader.i ], [ %16, %.lr.ph.i ]
  %11 = getelementptr inbounds ptr, ptr %6, i64 %.06.i
  %12 = load ptr, ptr %11, align 8
  %13 = getelementptr inbounds i8, ptr %12, i64 8
  %14 = load i32, ptr %13, align 8
  %15 = icmp eq i32 %14, 5
  %16 = add nuw i64 %.06.i, 1
  %exitcond.not.i = icmp eq i64 %16, %umax.i
  %or.cond.i = select i1 %15, i1 true, i1 %exitcond.not.i
  br i1 %or.cond.i, label %_ZNK5Block12get_last_stmEv.exit, label %.lr.ph.i, !llvm.loop !11

_ZNK5Block12get_last_stmEv.exit:                  ; preds = %.lr.ph.i
  %17 = getelementptr inbounds i8, ptr %0, i64 152
  %18 = load i8, ptr %17, align 8
  %19 = and i8 %18, 1
  %.not = icmp eq i8 %19, 0
  br i1 %.not, label %.loopexit, label %23

_ZNK5Block12get_last_stmEv.exit.thread:           ; preds = %2
  %20 = getelementptr inbounds i8, ptr %0, i64 152
  %21 = load i8, ptr %20, align 8
  %22 = and i8 %21, 1
  %.not30 = icmp eq i8 %22, 0
  br i1 %.not30, label %.loopexit, label %.thread

23:                                               ; preds = %_ZNK5Block12get_last_stmEv.exit
  %24 = load ptr, ptr %12, align 8
  %25 = getelementptr inbounds i8, ptr %24, i64 56
  %26 = load ptr, ptr %25, align 8
  %27 = tail call noundef zeroext i1 %26(ptr noundef nonnull align 8 dereferenceable(32) %12)
  br i1 %27, label %.loopexit, label %.thread

.thread:                                          ; preds = %_ZNK5Block12get_last_stmEv.exit.thread, %23
  %28 = getelementptr inbounds i8, ptr %1, i64 56
  %29 = load ptr, ptr %28, align 8
  %.not28 = icmp eq ptr %29, null
  br i1 %.not28, label %.loopexit, label %.preheader33

.preheader33:                                     ; preds = %.thread
  %30 = getelementptr inbounds i8, ptr %29, i64 16
  %31 = load ptr, ptr %30, align 8
  %32 = getelementptr inbounds i8, ptr %31, i64 8
  %33 = load ptr, ptr %32, align 8
  %34 = load ptr, ptr %31, align 8
  %.not42 = icmp eq ptr %33, %34
  br i1 %.not42, label %.preheader, label %.lr.ph

.lr.ph:                                           ; preds = %.preheader33
  %35 = getelementptr inbounds i8, ptr %1, i64 104
  br label %42

.preheader:                                       ; preds = %56, %.preheader33
  %36 = getelementptr inbounds i8, ptr %29, i64 24
  %37 = load ptr, ptr %36, align 8
  %38 = getelementptr inbounds i8, ptr %37, i64 8
  %39 = load ptr, ptr %38, align 8
  %40 = load ptr, ptr %37, align 8
  %.not43 = icmp eq ptr %39, %40
  br i1 %.not43, label %.loopexit, label %.lr.ph37

.lr.ph37:                                         ; preds = %.preheader
  %41 = getelementptr inbounds i8, ptr %1, i64 104
  br label %67

42:                                               ; preds = %.lr.ph, %56
  %43 = phi ptr [ %34, %.lr.ph ], [ %61, %56 ]
  %.02335 = phi i64 [ 0, %.lr.ph ], [ %57, %56 ]
  %44 = getelementptr inbounds ptr, ptr %43, i64 %.02335
  %45 = load ptr, ptr %44, align 8
  %46 = load ptr, ptr %45, align 8
  %47 = getelementptr inbounds i8, ptr %46, i64 40
  %48 = load ptr, ptr %47, align 8
  %49 = tail call noundef i64 %48(ptr noundef nonnull align 8 dereferenceable(200) %45)
  %50 = load i64, ptr %35, align 8
  %51 = icmp ugt i64 %49, %50
  br i1 %51, label %.loopexit, label %52

52:                                               ; preds = %42
  %53 = icmp eq i64 %49, %50
  br i1 %53, label %54, label %56

54:                                               ; preds = %52
  %55 = tail call noundef zeroext i1 @_Z12rnd_flipcoinjPK6FilterPKNSt7__cxx1112basic_stringIcSt11char_traitsIcESaIcEEE(i32 noundef 10, ptr noundef null, ptr noundef null)
  br i1 %55, label %.loopexit, label %56

56:                                               ; preds = %54, %52
  %57 = add nuw i64 %.02335, 1
  %58 = load ptr, ptr %30, align 8
  %59 = getelementptr inbounds i8, ptr %58, i64 8
  %60 = load ptr, ptr %59, align 8
  %61 = load ptr, ptr %58, align 8
  %62 = ptrtoint ptr %60 to i64
  %63 = ptrtoint ptr %61 to i64
  %64 = sub i64 %62, %63
  %65 = ashr exact i64 %64, 3
  %66 = icmp ult i64 %57, %65
  br i1 %66, label %42, label %.preheader, !llvm.loop !25

67:                                               ; preds = %.lr.ph37, %81
  %68 = phi ptr [ %40, %.lr.ph37 ], [ %86, %81 ]
  %.136 = phi i64 [ 0, %.lr.ph37 ], [ %82, %81 ]
  %69 = getelementptr inbounds ptr, ptr %68, i64 %.136
  %70 = load ptr, ptr %69, align 8
  %71 = load ptr, ptr %70, align 8
  %72 = getelementptr inbounds i8, ptr %71, i64 40
  %73 = load ptr, ptr %72, align 8
  %74 = tail call noundef i64 %73(ptr noundef nonnull align 8 dereferenceable(200) %70)
  %75 = load i64, ptr %41, align 8
  %76 = icmp ugt i64 %74, %75
  br i1 %76, label %.loopexit, label %77

77:                                               ; preds = %67
  %78 = icmp eq i64 %74, %75
  br i1 %78, label %79, label %81

79:                                               ; preds = %77
  %80 = tail call noundef zeroext i1 @_Z12rnd_flipcoinjPK6FilterPKNSt7__cxx1112basic_stringIcSt11char_traitsIcESaIcEEE(i32 noundef 10, ptr noundef null, ptr noundef null)
  br i1 %80, label %.loopexit, label %81

81:                                               ; preds = %79, %77
  %82 = add nuw i64 %.136, 1
  %83 = load ptr, ptr %36, align 8
  %84 = getelementptr inbounds i8, ptr %83, i64 8
  %85 = load ptr, ptr %84, align 8
  %86 = load ptr, ptr %83, align 8
  %87 = ptrtoint ptr %85 to i64
  %88 = ptrtoint ptr %86 to i64
  %89 = sub i64 %87, %88
  %90 = ashr exact i64 %89, 3
  %91 = icmp ult i64 %82, %90
  br i1 %91, label %67, label %.loopexit, !llvm.loop !26

.loopexit:                                        ; preds = %54, %42, %67, %79, %81, %.preheader, %_ZNK5Block12get_last_stmEv.exit.thread, %_ZNK5Block12get_last_stmEv.exit, %23, %.thread
  %.0 = phi i1 [ false, %.thread ], [ false, %23 ], [ false, %_ZNK5Block12get_last_stmEv.exit ], [ false, %_ZNK5Block12get_last_stmEv.exit.thread ], [ false, %.preheader ], [ true, %67 ], [ true, %79 ], [ false, %81 ], [ true, %42 ], [ true, %54 ]
  ret i1 %.0
}